; Function Attrs: nounwind sspstrong uwtable
define dso_local void @tcg_gen_clrsb_i32(ptr noundef %0, ptr noundef %1) local_unnamed_addr #2 {
  %3 = tail call ptr @tcg_temp_ebb_new_i32() #6
  %4 = tail call ptr @tcg_constant_i32(i32 noundef 31) #6
  %5 = tail call align 8 ptr @llvm.threadlocal.address.p0(ptr align 8 @tcg_ctx)
  %6 = load ptr, ptr %5, align 8
  %7 = ptrtoint ptr %3 to i64
  %8 = getelementptr inbounds nuw i8, ptr %6, i64 %7
  %9 = ptrtoint ptr %8 to i64
  %10 = ptrtoint ptr %1 to i64
  %11 = getelementptr inbounds nuw i8, ptr %6, i64 %10
  %12 = ptrtoint ptr %11 to i64
  %13 = ptrtoint ptr %4 to i64
  %14 = getelementptr inbounds nuw i8, ptr %6, i64 %13
  %15 = ptrtoint ptr %14 to i64
  %16 = tail call ptr @tcg_gen_op3(i32 noundef 31, i32 noundef 0, i64 noundef %9, i64 noundef %12, i64 noundef %15)
  %17 = load ptr, ptr %5, align 8
  %18 = getelementptr inbounds nuw i8, ptr %17, i64 %7
  %19 = ptrtoint ptr %18 to i64
  %20 = getelementptr inbounds nuw i8, ptr %17, i64 %10
  %21 = ptrtoint ptr %20 to i64
  %22 = tail call ptr @tcg_gen_op3(i32 noundef 28, i32 noundef 0, i64 noundef %19, i64 noundef %19, i64 noundef %21)
  %23 = tail call ptr @tcg_constant_i32(i32 noundef 32) #6
  %24 = load ptr, ptr %5, align 8
  %25 = getelementptr inbounds nuw i8, ptr %24, i64 %7
  %26 = ptrtoint ptr %25 to i64
  %27 = ptrtoint ptr %23 to i64
  %28 = getelementptr inbounds nuw i8, ptr %24, i64 %27
  %29 = ptrtoint ptr %28 to i64
  %30 = tail call ptr @tcg_gen_op3(i32 noundef 60, i32 noundef 0, i64 noundef %26, i64 noundef %26, i64 noundef %29)
  %31 = tail call ptr @tcg_constant_i32(i32 noundef -1) #6
  %32 = load ptr, ptr %5, align 8
  %33 = ptrtoint ptr %0 to i64
  %34 = getelementptr inbounds nuw i8, ptr %32, i64 %33
  %35 = ptrtoint ptr %34 to i64
  %36 = getelementptr inbounds nuw i8, ptr %32, i64 %7
  %37 = ptrtoint ptr %36 to i64
  %38 = ptrtoint ptr %31 to i64
  %39 = getelementptr inbounds nuw i8, ptr %32, i64 %38
  %40 = ptrtoint ptr %39 to i64
  %41 = tail call ptr @tcg_gen_op3(i32 noundef 17, i32 noundef 0, i64 noundef %35, i64 noundef %37, i64 noundef %40)
  tail call void @tcg_temp_free_i32(ptr noundef %3) #6
  ret void
}